target datalayout = "e-m:e-p270:32:32-p271:32:32-p272:64:64-i64:64-i128:128-f80:128-n8:16:32:64-S128"
target triple = "x86_64-pc-linux-gnu"

%struct.PJ_XY = type { double, double }
%struct.PJ_LP = type { double, double }

; Function Attrs: mustprogress nounwind uwtable
define internal { double, double } @_ZL15nicol_s_forward5PJ_LPP8PJconsts(double %0, double %1, ptr noundef %2) #1 {
  %4 = alloca %struct.PJ_XY, align 8
  %5 = alloca %struct.PJ_LP, align 8
  %6 = alloca ptr, align 8
  %7 = alloca double, align 8
  %8 = alloca double, align 8
  %9 = alloca double, align 8
  %10 = alloca double, align 8
  %11 = alloca double, align 8
  %12 = alloca double, align 8
  %13 = alloca double, align 8
  %14 = getelementptr inbounds nuw { double, double }, ptr %5, i32 0, i32 0
  store double %0, ptr %14, align 8
  %15 = getelementptr inbounds nuw { double, double }, ptr %5, i32 0, i32 1
  store double %1, ptr %15, align 8
  store ptr %2, ptr %6, align 8, !tbaa !3
  call void @llvm.memset.p0.i64(ptr align 8 %4, i8 0, i64 16, i1 false)
  %16 = getelementptr inbounds nuw %struct.PJ_LP, ptr %5, i32 0, i32 0
  %17 = load double, ptr %16, align 8, !tbaa !43
  %18 = call double @llvm.fabs.f64(double %17)
  %19 = fcmp olt double %18, 1.000000e-10
  br i1 %19, label %20, label %25

20:                                               ; preds = %3
  %21 = getelementptr inbounds nuw %struct.PJ_XY, ptr %4, i32 0, i32 0
  store double 0.000000e+00, ptr %21, align 8, !tbaa !45
  %22 = getelementptr inbounds nuw %struct.PJ_LP, ptr %5, i32 0, i32 1
  %23 = load double, ptr %22, align 8, !tbaa !47
  %24 = getelementptr inbounds nuw %struct.PJ_XY, ptr %4, i32 0, i32 1
  store double %23, ptr %24, align 8, !tbaa !48
  br label %184

25:                                               ; preds = %3
  %26 = getelementptr inbounds nuw %struct.PJ_LP, ptr %5, i32 0, i32 1
  %27 = load double, ptr %26, align 8, !tbaa !47
  %28 = call double @llvm.fabs.f64(double %27)
  %29 = fcmp olt double %28, 1.000000e-10
  br i1 %29, label %30, label %35

30:                                               ; preds = %25
  %31 = getelementptr inbounds nuw %struct.PJ_LP, ptr %5, i32 0, i32 0
  %32 = load double, ptr %31, align 8, !tbaa !43
  %33 = getelementptr inbounds nuw %struct.PJ_XY, ptr %4, i32 0, i32 0
  store double %32, ptr %33, align 8, !tbaa !45
  %34 = getelementptr inbounds nuw %struct.PJ_XY, ptr %4, i32 0, i32 1
  store double 0.000000e+00, ptr %34, align 8, !tbaa !48
  br label %183

35:                                               ; preds = %25
  %36 = getelementptr inbounds nuw %struct.PJ_LP, ptr %5, i32 0, i32 0
  %37 = load double, ptr %36, align 8, !tbaa !43
  %38 = call double @llvm.fabs.f64(double %37)
  %39 = fsub double %38, 0x3FF921FB54442D18
  %40 = call double @llvm.fabs.f64(double %39)
  %41 = fcmp olt double %40, 1.000000e-10
  br i1 %41, label %42, label %55

42:                                               ; preds = %35
  %43 = getelementptr inbounds nuw %struct.PJ_LP, ptr %5, i32 0, i32 0
  %44 = load double, ptr %43, align 8, !tbaa !43
  %45 = getelementptr inbounds nuw %struct.PJ_LP, ptr %5, i32 0, i32 1
  %46 = load double, ptr %45, align 8, !tbaa !47
  %47 = call double @cos(double noundef %46) #7, !tbaa !49
  %48 = fmul double %44, %47
  %49 = getelementptr inbounds nuw %struct.PJ_XY, ptr %4, i32 0, i32 0
  store double %48, ptr %49, align 8, !tbaa !45
  %50 = getelementptr inbounds nuw %struct.PJ_LP, ptr %5, i32 0, i32 1
  %51 = load double, ptr %50, align 8, !tbaa !47
  %52 = call double @sin(double noundef %51) #7, !tbaa !49
  %53 = fmul double 0x3FF921FB54442D18, %52
  %54 = getelementptr inbounds nuw %struct.PJ_XY, ptr %4, i32 0, i32 1
  store double %53, ptr %54, align 8, !tbaa !48
  br label %182

55:                                               ; preds = %35
  %56 = getelementptr inbounds nuw %struct.PJ_LP, ptr %5, i32 0, i32 1
  %57 = load double, ptr %56, align 8, !tbaa !47
  %58 = call double @llvm.fabs.f64(double %57)
  %59 = fsub double %58, 0x3FF921FB54442D18
  %60 = call double @llvm.fabs.f64(double %59)
  %61 = fcmp olt double %60, 1.000000e-10
  br i1 %61, label %62, label %67

62:                                               ; preds = %55
  %63 = getelementptr inbounds nuw %struct.PJ_XY, ptr %4, i32 0, i32 0
  store double 0.000000e+00, ptr %63, align 8, !tbaa !45
  %64 = getelementptr inbounds nuw %struct.PJ_LP, ptr %5, i32 0, i32 1
  %65 = load double, ptr %64, align 8, !tbaa !47
  %66 = getelementptr inbounds nuw %struct.PJ_XY, ptr %4, i32 0, i32 1
  store double %65, ptr %66, align 8, !tbaa !48
  br label %181

67:                                               ; preds = %55
  call void @llvm.lifetime.start.p0(i64 8, ptr %7) #7
  call void @llvm.lifetime.start.p0(i64 8, ptr %8) #7
  call void @llvm.lifetime.start.p0(i64 8, ptr %9) #7
  call void @llvm.lifetime.start.p0(i64 8, ptr %10) #7
  call void @llvm.lifetime.start.p0(i64 8, ptr %11) #7
  call void @llvm.lifetime.start.p0(i64 8, ptr %12) #7
  call void @llvm.lifetime.start.p0(i64 8, ptr %13) #7
  %68 = getelementptr inbounds nuw %struct.PJ_LP, ptr %5, i32 0, i32 0
  %69 = load double, ptr %68, align 8, !tbaa !43
  %70 = fdiv double 0x3FF921FB54442D18, %69
  %71 = getelementptr inbounds nuw %struct.PJ_LP, ptr %5, i32 0, i32 0
  %72 = load double, ptr %71, align 8, !tbaa !43
  %73 = fdiv double %72, 0x3FF921FB54442D18
  %74 = fsub double %70, %73
  store double %74, ptr %7, align 8, !tbaa !50
  %75 = getelementptr inbounds nuw %struct.PJ_LP, ptr %5, i32 0, i32 1
  %76 = load double, ptr %75, align 8, !tbaa !47
  %77 = fdiv double %76, 0x3FF921FB54442D18
  store double %77, ptr %8, align 8, !tbaa !50
  %78 = load double, ptr %8, align 8, !tbaa !50
  %79 = load double, ptr %8, align 8, !tbaa !50
  %80 = fneg double %78
  %81 = call double @llvm.fmuladd.f64(double %80, double %79, double 1.000000e+00)
  %82 = getelementptr inbounds nuw %struct.PJ_LP, ptr %5, i32 0, i32 1
  %83 = load double, ptr %82, align 8, !tbaa !47
  %84 = call double @sin(double noundef %83) #7, !tbaa !49
  store double %84, ptr %13, align 8, !tbaa !50
  %85 = load double, ptr %8, align 8, !tbaa !50
  %86 = fsub double %84, %85
  %87 = fdiv double %81, %86
  store double %87, ptr %9, align 8, !tbaa !50
  %88 = load double, ptr %7, align 8, !tbaa !50
  %89 = load double, ptr %9, align 8, !tbaa !50
  %90 = fdiv double %88, %89
  store double %90, ptr %12, align 8, !tbaa !50
  %91 = load double, ptr %12, align 8, !tbaa !50
  %92 = load double, ptr %12, align 8, !tbaa !50
  %93 = fmul double %92, %91
  store double %93, ptr %12, align 8, !tbaa !50
  %94 = load double, ptr %7, align 8, !tbaa !50
  %95 = load double, ptr %13, align 8, !tbaa !50
  %96 = fmul double %94, %95
  %97 = load double, ptr %9, align 8, !tbaa !50
  %98 = fdiv double %96, %97
  %99 = load double, ptr %7, align 8, !tbaa !50
  %100 = call double @llvm.fmuladd.f64(double -5.000000e-01, double %99, double %98)
  %101 = load double, ptr %12, align 8, !tbaa !50
  %102 = fadd double 1.000000e+00, %101
  %103 = fdiv double %100, %102
  store double %103, ptr %10, align 8, !tbaa !50
  %104 = load double, ptr %13, align 8, !tbaa !50
  %105 = load double, ptr %12, align 8, !tbaa !50
  %106 = fdiv double %104, %105
  %107 = load double, ptr %9, align 8, !tbaa !50
  %108 = call double @llvm.fmuladd.f64(double 5.000000e-01, double %107, double %106)
  %109 = load double, ptr %12, align 8, !tbaa !50
  %110 = fdiv double 1.000000e+00, %109
  %111 = fadd double 1.000000e+00, %110
  %112 = fdiv double %108, %111
  store double %112, ptr %11, align 8, !tbaa !50
  %113 = getelementptr inbounds nuw %struct.PJ_LP, ptr %5, i32 0, i32 1
  %114 = load double, ptr %113, align 8, !tbaa !47
  %115 = call double @cos(double noundef %114) #7, !tbaa !49
  %116 = getelementptr inbounds nuw %struct.PJ_XY, ptr %4, i32 0, i32 0
  store double %115, ptr %116, align 8, !tbaa !45
  %117 = load double, ptr %10, align 8, !tbaa !50
  %118 = load double, ptr %10, align 8, !tbaa !50
  %119 = getelementptr inbounds nuw %struct.PJ_XY, ptr %4, i32 0, i32 0
  %120 = load double, ptr %119, align 8, !tbaa !45
  %121 = getelementptr inbounds nuw %struct.PJ_XY, ptr %4, i32 0, i32 0
  %122 = load double, ptr %121, align 8, !tbaa !45
  %123 = fmul double %120, %122
  %124 = load double, ptr %12, align 8, !tbaa !50
  %125 = fadd double 1.000000e+00, %124
  %126 = fdiv double %123, %125
  %127 = call double @llvm.fmuladd.f64(double %117, double %118, double %126)
  %128 = call double @sqrt(double noundef %127) #7, !tbaa !49
  %129 = getelementptr inbounds nuw %struct.PJ_XY, ptr %4, i32 0, i32 0
  store double %128, ptr %129, align 8, !tbaa !45
  %130 = load double, ptr %10, align 8, !tbaa !50
  %131 = getelementptr inbounds nuw %struct.PJ_LP, ptr %5, i32 0, i32 0
  %132 = load double, ptr %131, align 8, !tbaa !43
  %133 = fcmp olt double %132, 0.000000e+00
  br i1 %133, label %134, label %138

134:                                              ; preds = %67
  %135 = getelementptr inbounds nuw %struct.PJ_XY, ptr %4, i32 0, i32 0
  %136 = load double, ptr %135, align 8, !tbaa !45
  %137 = fneg double %136
  br label %141

138:                                              ; preds = %67
  %139 = getelementptr inbounds nuw %struct.PJ_XY, ptr %4, i32 0, i32 0
  %140 = load double, ptr %139, align 8, !tbaa !45
  br label %141

141:                                              ; preds = %138, %134
  %142 = phi double [ %137, %134 ], [ %140, %138 ]
  %143 = fadd double %130, %142
  %144 = fmul double 0x3FF921FB54442D18, %143
  %145 = getelementptr inbounds nuw %struct.PJ_XY, ptr %4, i32 0, i32 0
  store double %144, ptr %145, align 8, !tbaa !45
  %146 = load double, ptr %11, align 8, !tbaa !50
  %147 = load double, ptr %11, align 8, !tbaa !50
  %148 = load double, ptr %13, align 8, !tbaa !50
  %149 = load double, ptr %13, align 8, !tbaa !50
  %150 = fmul double %148, %149
  %151 = load double, ptr %12, align 8, !tbaa !50
  %152 = fdiv double %150, %151
  %153 = load double, ptr %9, align 8, !tbaa !50
  %154 = load double, ptr %13, align 8, !tbaa !50
  %155 = call double @llvm.fmuladd.f64(double %153, double %154, double %152)
  %156 = fsub double %155, 1.000000e+00
  %157 = load double, ptr %12, align 8, !tbaa !50
  %158 = fdiv double 1.000000e+00, %157
  %159 = fadd double 1.000000e+00, %158
  %160 = fdiv double %156, %159
  %161 = fneg double %160
  %162 = call double @llvm.fmuladd.f64(double %146, double %147, double %161)
  %163 = call double @sqrt(double noundef %162) #7, !tbaa !49
  %164 = getelementptr inbounds nuw %struct.PJ_XY, ptr %4, i32 0, i32 1
  store double %163, ptr %164, align 8, !tbaa !48
  %165 = load double, ptr %11, align 8, !tbaa !50
  %166 = getelementptr inbounds nuw %struct.PJ_LP, ptr %5, i32 0, i32 1
  %167 = load double, ptr %166, align 8, !tbaa !47
  %168 = fcmp olt double %167, 0.000000e+00
  br i1 %168, label %169, label %172

169:                                              ; preds = %141
  %170 = getelementptr inbounds nuw %struct.PJ_XY, ptr %4, i32 0, i32 1
  %171 = load double, ptr %170, align 8, !tbaa !48
  br label %176

172:                                              ; preds = %141
  %173 = getelementptr inbounds nuw %struct.PJ_XY, ptr %4, i32 0, i32 1
  %174 = load double, ptr %173, align 8, !tbaa !48
  %175 = fneg double %174
  br label %176

176:                                              ; preds = %172, %169
  %177 = phi double [ %171, %169 ], [ %175, %172 ]
  %178 = fadd double %165, %177
  %179 = fmul double 0x3FF921FB54442D18, %178
  %180 = getelementptr inbounds nuw %struct.PJ_XY, ptr %4, i32 0, i32 1
  store double %179, ptr %180, align 8, !tbaa !48
  call void @llvm.lifetime.end.p0(i64 8, ptr %13) #7
  call void @llvm.lifetime.end.p0(i64 8, ptr %12) #7
  call void @llvm.lifetime.end.p0(i64 8, ptr %11) #7
  call void @llvm.lifetime.end.p0(i64 8, ptr %10) #7
  call void @llvm.lifetime.end.p0(i64 8, ptr %9) #7
  call void @llvm.lifetime.end.p0(i64 8, ptr %8) #7
  call void @llvm.lifetime.end.p0(i64 8, ptr %7) #7
  br label %181

181:                                              ; preds = %176, %62
  br label %182

182:                                              ; preds = %181, %42
  br label %183

183:                                              ; preds = %182, %30
  br label %184

184:                                              ; preds = %183, %20
  %185 = load { double, double }, ptr %4, align 8
  ret { double, double } %185
}