; Function Attrs: mustprogress nofree nounwind willreturn memory(write) uwtable
define internal { double, double } @_ZL15nicol_s_forward5PJ_LPP8PJconsts(double %0, double %1, ptr readnone captures(none) %2) #3 {
  %4 = tail call double @llvm.fabs.f64(double %0)
  %5 = fcmp olt double %4, 1.000000e-10
  br i1 %5, label %66, label %6

6:                                                ; preds = %3
  %7 = tail call double @llvm.fabs.f64(double %1)
  %8 = fcmp olt double %7, 1.000000e-10
  br i1 %8, label %66, label %9

9:                                                ; preds = %6
  %10 = fadd double %4, 0xBFF921FB54442D18
  %11 = tail call double @llvm.fabs.f64(double %10)
  %12 = fcmp olt double %11, 1.000000e-10
  br i1 %12, label %13, label %18

13:                                               ; preds = %9
  %14 = tail call double @cos(double noundef %1) #7, !tbaa !42
  %15 = fmul double %0, %14
  %16 = tail call double @sin(double noundef %1) #7, !tbaa !42
  %17 = fmul double %16, 0x3FF921FB54442D18
  br label %66

18:                                               ; preds = %9
  %19 = fadd double %7, 0xBFF921FB54442D18
  %20 = tail call double @llvm.fabs.f64(double %19)
  %21 = fcmp olt double %20, 1.000000e-10
  br i1 %21, label %66, label %22

22:                                               ; preds = %18
  %23 = fdiv double 0x3FF921FB54442D18, %0
  %24 = fdiv double %0, 0x3FF921FB54442D18
  %25 = fsub double %23, %24
  %26 = fdiv double %1, 0x3FF921FB54442D18
  %27 = fneg double %26
  %28 = tail call double @llvm.fmuladd.f64(double %27, double %26, double 1.000000e+00)
  %29 = tail call double @sin(double noundef %1) #7, !tbaa !42
  %30 = fsub double %29, %26
  %31 = fdiv double %28, %30
  %32 = fdiv double %25, %31
  %33 = fmul double %32, %32
  %34 = fmul double %25, %29
  %35 = fdiv double %34, %31
  %36 = tail call double @llvm.fmuladd.f64(double %25, double -5.000000e-01, double %35)
  %37 = fadd double %33, 1.000000e+00
  %38 = fdiv double %36, %37
  %39 = fdiv double %29, %33
  %40 = tail call double @llvm.fmuladd.f64(double %31, double 5.000000e-01, double %39)
  %41 = fdiv double 1.000000e+00, %33
  %42 = fadd double %41, 1.000000e+00
  %43 = fdiv double %40, %42
  %44 = tail call double @cos(double noundef %1) #7, !tbaa !42
  %45 = fmul double %44, %44
  %46 = fdiv double %45, %37
  %47 = tail call double @llvm.fmuladd.f64(double %38, double %38, double %46)
  %sqrt = tail call double @llvm.sqrt.f64(double %47)
  %48 = fcmp olt double %0, 0.000000e+00
  %49 = fneg double %sqrt
  %50 = select i1 %48, double %49, double %sqrt
  %51 = fadd double %38, %50
  %52 = fmul double %51, 0x3FF921FB54442D18
  %53 = fmul double %29, %29
  %54 = fdiv double %53, %33
  %55 = tail call double @llvm.fmuladd.f64(double %31, double %29, double %54)
  %56 = fadd double %55, -1.000000e+00
  %57 = fneg double %56
  %58 = fdiv double %57, %42
  %59 = tail call double @llvm.fmuladd.f64(double %43, double %43, double %58)
  %60 = tail call double @sqrt(double noundef %59) #7, !tbaa !42
  %61 = fcmp olt double %1, 0.000000e+00
  %62 = fneg double %60
  %63 = select i1 %61, double %60, double %62
  %64 = fadd double %63, %43
  %65 = fmul double %64, 0x3FF921FB54442D18
  br label %66

66:                                               ; preds = %18, %6, %3, %22, %13
  %.sroa.13.0 = phi double [ %17, %13 ], [ %65, %22 ], [ %1, %3 ], [ 0.000000e+00, %6 ], [ %1, %18 ]
  %.sroa.044.0 = phi double [ %15, %13 ], [ %52, %22 ], [ 0.000000e+00, %3 ], [ %0, %6 ], [ 0.000000e+00, %18 ]
  %.fca.0.insert = insertvalue { double, double } poison, double %.sroa.044.0, 0
  %.fca.1.insert = insertvalue { double, double } %.fca.0.insert, double %.sroa.13.0, 1
  ret { double, double } %.fca.1.insert
}